; Function Attrs: mustprogress nofree norecurse nosync nounwind willreturn memory(read, inaccessiblemem: none) uwtable
define hidden { ptr, ptr } @_ZNK4cvc58internal6theory5arith6linear14ArithVariables18explainEqualBoundsEj(ptr nocapture noundef nonnull readonly align 8 dereferenceable(568) %this, i32 noundef %x) local_unnamed_addr #7 align 2 {
entry:
  %d_image.i.i = getelementptr inbounds i8, ptr %this, i64 48
  %conv.i.i = zext i32 %x to i64
  %0 = load ptr, ptr %d_image.i.i, align 8
  %d_lb.i = getelementptr inbounds %"class.cvc5::internal::theory::arith::linear::ArithVariables::VarInfo", ptr %0, i64 %conv.i.i, i32 3
  %1 = load ptr, ptr %d_lb.i, align 8
  %d_type.i = getelementptr inbounds i8, ptr %1, i64 4
  %2 = load i32, ptr %d_type.i, align 4
  %cmp.i = icmp eq i32 %2, 1
  br i1 %cmp.i, label %return, label %if.else

if.else:                                          ; preds = %entry
  %d_ub.i = getelementptr inbounds %"class.cvc5::internal::theory::arith::linear::ArithVariables::VarInfo", ptr %0, i64 %conv.i.i, i32 4
  %3 = load ptr, ptr %d_ub.i, align 8
  %d_type.i5 = getelementptr inbounds i8, ptr %3, i64 4
  %4 = load i32, ptr %d_type.i5, align 4
  %cmp.i6 = icmp eq i32 %4, 1
  %. = select i1 %cmp.i6, ptr %3, ptr %1
  %.17 = select i1 %cmp.i6, ptr null, ptr %3
  br label %return

return:                                           ; preds = %if.else, %entry
  %.pn16 = phi ptr [ %1, %entry ], [ %., %if.else ]
  %.pn = phi ptr [ null, %entry ], [ %.17, %if.else ]
  %.fca.0.insert.i.pn = insertvalue { ptr, ptr } undef, ptr %.pn16, 0
  %call4.pn = insertvalue { ptr, ptr } %.fca.0.insert.i.pn, ptr %.pn, 1
  ret { ptr, ptr } %call4.pn
}